target datalayout = "e-m:e-p270:32:32-p271:32:32-p272:64:64-i64:64-i128:128-f80:128-n8:16:32:64-S128"
target triple = "x86_64-pc-linux-gnu"

%struct.lua_State = type { i8, i8, i8, i8, i8, i8, i8, ptr, ptr, ptr, ptr, ptr, ptr, ptr, ptr, i32, i32, i16, i16, i32, ptr, ptr, ptr, ptr, ptr }
%struct.global_State = type { %struct.stringtable, ptr, ptr, i8, i8, ptr, ptr, ptr, i64, i64, i32, i32, i32, [40 x ptr], [40 x ptr], ptr, ptr, ptr, [256 x i64], ptr, %struct.UpVal, [11 x ptr], [11 x ptr], [21 x ptr], %struct.lua_TValue, %struct.lua_TValue, i32, ptr, i64, [4 x i64], %struct.lua_Callbacks, %struct.lua_ExecutionCallbacks, [128 x ptr], [128 x ptr], [128 x ptr], %struct.GCStats }
%struct.stringtable = type { ptr, i32, i32 }
%struct.UpVal = type { i8, i8, i8, i8, ptr, %union.anon }
%union.anon = type { %struct.anon }
%struct.anon = type { ptr, ptr, ptr }
%struct.lua_TValue = type { %union.Value, [1 x i32], i32 }
%union.Value = type { ptr }
%struct.lua_Callbacks = type { ptr, ptr, ptr, ptr, ptr, ptr, ptr, ptr, ptr, ptr }
%struct.lua_ExecutionCallbacks = type { ptr, ptr, ptr, ptr, ptr, ptr, ptr }
%struct.GCStats = type { [32 x i32], i32, i32, i64, i64, i64, double, double, double }

@.str.38 = private unnamed_addr constant [18 x i8] c"interval is empty\00", align 1
@.str.39 = private unnamed_addr constant [22 x i8] c"interval is too large\00", align 1
@.str.40 = private unnamed_addr constant [26 x i8] c"wrong number of arguments\00", align 1

; Function Attrs: mustprogress nounwind uwtable
define internal noundef i32 @_ZL12pcg32_randomPm(ptr noundef %0) #1 {
  %2 = alloca ptr, align 8
  %3 = alloca i64, align 8
  %4 = alloca i32, align 4
  %5 = alloca i32, align 4
  store ptr %0, ptr %2, align 8, !tbaa !35
  call void @llvm.lifetime.start.p0(i64 8, ptr %3) #11
  %6 = load ptr, ptr %2, align 8, !tbaa !35
  %7 = load i64, ptr %6, align 8, !tbaa !22
  store i64 %7, ptr %3, align 8, !tbaa !22
  %8 = load i64, ptr %3, align 8, !tbaa !22
  %9 = mul i64 %8, 6364136223846793005
  %10 = add i64 %9, 105
  %11 = load ptr, ptr %2, align 8, !tbaa !35
  store i64 %10, ptr %11, align 8, !tbaa !22
  call void @llvm.lifetime.start.p0(i64 4, ptr %4) #11
  %12 = load i64, ptr %3, align 8, !tbaa !22
  %13 = lshr i64 %12, 18
  %14 = load i64, ptr %3, align 8, !tbaa !22
  %15 = xor i64 %13, %14
  %16 = lshr i64 %15, 27
  %17 = trunc i64 %16 to i32
  store i32 %17, ptr %4, align 4, !tbaa !39
  call void @llvm.lifetime.start.p0(i64 4, ptr %5) #11
  %18 = load i64, ptr %3, align 8, !tbaa !22
  %19 = lshr i64 %18, 59
  %20 = trunc i64 %19 to i32
  store i32 %20, ptr %5, align 4, !tbaa !39
  %21 = load i32, ptr %4, align 4, !tbaa !39
  %22 = load i32, ptr %5, align 4, !tbaa !39
  %23 = lshr i32 %21, %22
  %24 = load i32, ptr %4, align 4, !tbaa !39
  %25 = load i32, ptr %5, align 4, !tbaa !39
  %26 = sub nsw i32 0, %25
  %27 = and i32 %26, 31
  %28 = shl i32 %24, %27
  %29 = or i32 %23, %28
  call void @llvm.lifetime.end.p0(i64 4, ptr %5) #11
  call void @llvm.lifetime.end.p0(i64 4, ptr %4) #11
  call void @llvm.lifetime.end.p0(i64 8, ptr %3) #11
  ret i32 %29
}

; Function Attrs: mustprogress uwtable
define internal noundef i32 @_ZL11math_randomP9lua_State(ptr noundef %0) #2 {
  %2 = alloca ptr, align 8
  %3 = alloca ptr, align 8
  %4 = alloca i32, align 4
  %5 = alloca i32, align 4
  %6 = alloca double, align 8
  %7 = alloca i32, align 4
  %8 = alloca i64, align 8
  %9 = alloca i32, align 4
  %10 = alloca i32, align 4
  %11 = alloca i32, align 4
  %12 = alloca i32, align 4
  %13 = alloca i64, align 8
  %14 = alloca i32, align 4
  store ptr %0, ptr %2, align 8, !tbaa !20
  call void @llvm.lifetime.start.p0(i64 8, ptr %3) #11
  %15 = load ptr, ptr %2, align 8, !tbaa !20
  %16 = getelementptr inbounds nuw %struct.lua_State, ptr %15, i32 0, i32 9
  %17 = load ptr, ptr %16, align 8, !tbaa !24
  store ptr %17, ptr %3, align 8, !tbaa !43
  %18 = load ptr, ptr %2, align 8, !tbaa !20
  %19 = call noundef i32 @_Z10lua_gettopP9lua_State(ptr noundef %18)
  switch i32 %19, label %99 [
    i32 0, label %20
    i32 1, label %37
    i32 2, label %60
  ]

20:                                               ; preds = %1
  call void @llvm.lifetime.start.p0(i64 4, ptr %4) #11
  %21 = load ptr, ptr %3, align 8, !tbaa !43
  %22 = getelementptr inbounds nuw %struct.global_State, ptr %21, i32 0, i32 28
  %23 = call noundef i32 @_ZL12pcg32_randomPm(ptr noundef %22)
  store i32 %23, ptr %4, align 4, !tbaa !39
  call void @llvm.lifetime.start.p0(i64 4, ptr %5) #11
  %24 = load ptr, ptr %3, align 8, !tbaa !43
  %25 = getelementptr inbounds nuw %struct.global_State, ptr %24, i32 0, i32 28
  %26 = call noundef i32 @_ZL12pcg32_randomPm(ptr noundef %25)
  store i32 %26, ptr %5, align 4, !tbaa !39
  call void @llvm.lifetime.start.p0(i64 8, ptr %6) #11
  %27 = load i32, ptr %4, align 4, !tbaa !39
  %28 = zext i32 %27 to i64
  %29 = load i32, ptr %5, align 4, !tbaa !39
  %30 = zext i32 %29 to i64
  %31 = shl i64 %30, 32
  %32 = or i64 %28, %31
  %33 = uitofp i64 %32 to double
  %34 = call double @ldexp(double noundef %33, i32 noundef -64) #12
  store double %34, ptr %6, align 8, !tbaa !37
  %35 = load ptr, ptr %2, align 8, !tbaa !20
  %36 = load double, ptr %6, align 8, !tbaa !37
  call void @_Z14lua_pushnumberP9lua_Stated(ptr noundef %35, double noundef %36)
  call void @llvm.lifetime.end.p0(i64 8, ptr %6) #11
  call void @llvm.lifetime.end.p0(i64 4, ptr %5) #11
  call void @llvm.lifetime.end.p0(i64 4, ptr %4) #11
  br label %101

37:                                               ; preds = %1
  call void @llvm.lifetime.start.p0(i64 4, ptr %7) #11
  %38 = load ptr, ptr %2, align 8, !tbaa !20
  %39 = call noundef i32 @_Z17luaL_checkintegerP9lua_Statei(ptr noundef %38, i32 noundef 1)
  store i32 %39, ptr %7, align 4, !tbaa !39
  %40 = load i32, ptr %7, align 4, !tbaa !39
  %41 = icmp sle i32 1, %40
  br i1 %41, label %42, label %43

42:                                               ; preds = %37
  br label %46

43:                                               ; preds = %37
  %44 = load ptr, ptr %2, align 8, !tbaa !20
  call void @_Z14luaL_argerrorLP9lua_StateiPKc(ptr noundef %44, i32 noundef 1, ptr noundef @.str.38) #13
  unreachable

45:                                               ; No predecessors!
  br label %46

46:                                               ; preds = %45, %42
  call void @llvm.lifetime.start.p0(i64 8, ptr %8) #11
  %47 = load i32, ptr %7, align 4, !tbaa !39
  %48 = sext i32 %47 to i64
  %49 = load ptr, ptr %3, align 8, !tbaa !43
  %50 = getelementptr inbounds nuw %struct.global_State, ptr %49, i32 0, i32 28
  %51 = call noundef i32 @_ZL12pcg32_randomPm(ptr noundef %50)
  %52 = zext i32 %51 to i64
  %53 = mul i64 %48, %52
  store i64 %53, ptr %8, align 8, !tbaa !22
  call void @llvm.lifetime.start.p0(i64 4, ptr %9) #11
  %54 = load i64, ptr %8, align 8, !tbaa !22
  %55 = lshr i64 %54, 32
  %56 = add i64 1, %55
  %57 = trunc i64 %56 to i32
  store i32 %57, ptr %9, align 4, !tbaa !39
  %58 = load ptr, ptr %2, align 8, !tbaa !20
  %59 = load i32, ptr %9, align 4, !tbaa !39
  call void @_Z15lua_pushintegerP9lua_Statei(ptr noundef %58, i32 noundef %59)
  call void @llvm.lifetime.end.p0(i64 4, ptr %9) #11
  call void @llvm.lifetime.end.p0(i64 8, ptr %8) #11
  call void @llvm.lifetime.end.p0(i64 4, ptr %7) #11
  br label %101

60:                                               ; preds = %1
  call void @llvm.lifetime.start.p0(i64 4, ptr %10) #11
  %61 = load ptr, ptr %2, align 8, !tbaa !20
  %62 = call noundef i32 @_Z17luaL_checkintegerP9lua_Statei(ptr noundef %61, i32 noundef 1)
  store i32 %62, ptr %10, align 4, !tbaa !39
  call void @llvm.lifetime.start.p0(i64 4, ptr %11) #11
  %63 = load ptr, ptr %2, align 8, !tbaa !20
  %64 = call noundef i32 @_Z17luaL_checkintegerP9lua_Statei(ptr noundef %63, i32 noundef 2)
  store i32 %64, ptr %11, align 4, !tbaa !39
  %65 = load i32, ptr %10, align 4, !tbaa !39
  %66 = load i32, ptr %11, align 4, !tbaa !39
  %67 = icmp sle i32 %65, %66
  br i1 %67, label %68, label %69

68:                                               ; preds = %60
  br label %72

69:                                               ; preds = %60
  %70 = load ptr, ptr %2, align 8, !tbaa !20
  call void @_Z14luaL_argerrorLP9lua_StateiPKc(ptr noundef %70, i32 noundef 2, ptr noundef @.str.38) #13
  unreachable

71:                                               ; No predecessors!
  br label %72

72:                                               ; preds = %71, %68
  call void @llvm.lifetime.start.p0(i64 4, ptr %12) #11
  %73 = load i32, ptr %11, align 4, !tbaa !39
  %74 = load i32, ptr %10, align 4, !tbaa !39
  %75 = sub i32 %73, %74
  store i32 %75, ptr %12, align 4, !tbaa !39
  %76 = load i32, ptr %12, align 4, !tbaa !39
  %77 = icmp ult i32 %76, -1
  br i1 %77, label %78, label %79

78:                                               ; preds = %72
  br label %82

79:                                               ; preds = %72
  %80 = load ptr, ptr %2, align 8, !tbaa !20
  call void @_Z14luaL_argerrorLP9lua_StateiPKc(ptr noundef %80, i32 noundef 2, ptr noundef @.str.39) #13
  unreachable

81:                                               ; No predecessors!
  br label %82

82:                                               ; preds = %81, %78
  call void @llvm.lifetime.start.p0(i64 8, ptr %13) #11
  %83 = load i32, ptr %12, align 4, !tbaa !39
  %84 = add i32 %83, 1
  %85 = zext i32 %84 to i64
  %86 = load ptr, ptr %3, align 8, !tbaa !43
  %87 = getelementptr inbounds nuw %struct.global_State, ptr %86, i32 0, i32 28
  %88 = call noundef i32 @_ZL12pcg32_randomPm(ptr noundef %87)
  %89 = zext i32 %88 to i64
  %90 = mul i64 %85, %89
  store i64 %90, ptr %13, align 8, !tbaa !22
  call void @llvm.lifetime.start.p0(i64 4, ptr %14) #11
  %91 = load i32, ptr %10, align 4, !tbaa !39
  %92 = sext i32 %91 to i64
  %93 = load i64, ptr %13, align 8, !tbaa !22
  %94 = lshr i64 %93, 32
  %95 = add i64 %92, %94
  %96 = trunc i64 %95 to i32
  store i32 %96, ptr %14, align 4, !tbaa !39
  %97 = load ptr, ptr %2, align 8, !tbaa !20
  %98 = load i32, ptr %14, align 4, !tbaa !39
  call void @_Z15lua_pushintegerP9lua_Statei(ptr noundef %97, i32 noundef %98)
  call void @llvm.lifetime.end.p0(i64 4, ptr %14) #11
  call void @llvm.lifetime.end.p0(i64 8, ptr %13) #11
  call void @llvm.lifetime.end.p0(i64 4, ptr %12) #11
  call void @llvm.lifetime.end.p0(i64 4, ptr %11) #11
  call void @llvm.lifetime.end.p0(i64 4, ptr %10) #11
  br label %101

99:                                               ; preds = %1
  %100 = load ptr, ptr %2, align 8, !tbaa !20
  call void (ptr, ptr, ...) @_Z11luaL_errorLP9lua_StatePKcz(ptr noundef %100, ptr noundef @.str.40) #13
  unreachable

101:                                              ; preds = %82, %46, %20
  call void @llvm.lifetime.end.p0(i64 8, ptr %3) #11
  ret i32 1
}