; Function Attrs: mustprogress uwtable
define internal noundef i32 @_ZL11math_randomP9lua_State(ptr noundef %0) #0 {
  %2 = getelementptr inbounds nuw i8, ptr %0, i64 24
  %3 = load ptr, ptr %2, align 8, !tbaa !4
  %4 = tail call noundef i32 @_Z10lua_gettopP9lua_State(ptr noundef %0)
  switch i32 %4, label %80 [
    i32 0, label %5
    i32 1, label %32
    i32 2, label %54
  ]

5:                                                ; preds = %1
  %6 = getelementptr inbounds nuw i8, ptr %3, i64 3248
  %7 = load i64, ptr %6, align 8, !tbaa !19
  %8 = mul i64 %7, 6364136223846793005
  %9 = add i64 %8, 105
  %10 = lshr i64 %7, 45
  %11 = lshr i64 %7, 27
  %12 = xor i64 %10, %11
  %13 = trunc i64 %12 to i32
  %14 = lshr i64 %7, 59
  %15 = trunc nuw nsw i64 %14 to i32
  %16 = tail call noundef i32 @llvm.fshr.i32(i32 %13, i32 %13, i32 %15)
  %17 = mul i64 %9, 6364136223846793005
  %18 = add i64 %17, 105
  store i64 %18, ptr %6, align 8, !tbaa !19
  %19 = lshr i64 %9, 45
  %20 = lshr i64 %9, 27
  %21 = xor i64 %19, %20
  %22 = trunc i64 %21 to i32
  %23 = lshr i64 %9, 59
  %24 = trunc nuw nsw i64 %23 to i32
  %25 = tail call noundef i32 @llvm.fshr.i32(i32 %22, i32 %22, i32 %24)
  %26 = zext i32 %16 to i64
  %27 = zext i32 %25 to i64
  %28 = shl nuw i64 %27, 32
  %29 = or disjoint i64 %28, %26
  %30 = uitofp i64 %29 to double
  %31 = tail call double @ldexp(double noundef %30, i32 noundef -64) #11
  tail call void @_Z14lua_pushnumberP9lua_Stated(ptr noundef nonnull %0, double noundef %31)
  br label %81

32:                                               ; preds = %1
  %33 = tail call noundef i32 @_Z17luaL_checkintegerP9lua_Statei(ptr noundef nonnull %0, i32 noundef 1)
  %34 = icmp sgt i32 %33, 0
  br i1 %34, label %36, label %35

35:                                               ; preds = %32
  tail call void @_Z14luaL_argerrorLP9lua_StateiPKc(ptr noundef nonnull %0, i32 noundef 1, ptr noundef nonnull @.str.38) #12
  unreachable

36:                                               ; preds = %32
  %37 = zext nneg i32 %33 to i64
  %38 = getelementptr inbounds nuw i8, ptr %3, i64 3248
  %39 = load i64, ptr %38, align 8, !tbaa !19
  %40 = mul i64 %39, 6364136223846793005
  %41 = add i64 %40, 105
  store i64 %41, ptr %38, align 8, !tbaa !19
  %42 = lshr i64 %39, 45
  %43 = lshr i64 %39, 27
  %44 = xor i64 %42, %43
  %45 = trunc i64 %44 to i32
  %46 = lshr i64 %39, 59
  %47 = trunc nuw nsw i64 %46 to i32
  %48 = tail call noundef i32 @llvm.fshr.i32(i32 %45, i32 %45, i32 %47)
  %49 = zext i32 %48 to i64
  %50 = mul nuw nsw i64 %49, %37
  %51 = lshr i64 %50, 32
  %52 = trunc nuw nsw i64 %51 to i32
  %53 = add nuw nsw i32 %52, 1
  tail call void @_Z15lua_pushintegerP9lua_Statei(ptr noundef nonnull %0, i32 noundef %53)
  br label %81

54:                                               ; preds = %1
  %55 = tail call noundef i32 @_Z17luaL_checkintegerP9lua_Statei(ptr noundef nonnull %0, i32 noundef 1)
  %56 = tail call noundef i32 @_Z17luaL_checkintegerP9lua_Statei(ptr noundef nonnull %0, i32 noundef 2)
  %.not = icmp sgt i32 %55, %56
  br i1 %.not, label %57, label %58

57:                                               ; preds = %54
  tail call void @_Z14luaL_argerrorLP9lua_StateiPKc(ptr noundef nonnull %0, i32 noundef 2, ptr noundef nonnull @.str.38) #12
  unreachable

58:                                               ; preds = %54
  %59 = sub i32 %56, %55
  %.not34 = icmp eq i32 %59, -1
  br i1 %.not34, label %60, label %61

60:                                               ; preds = %58
  tail call void @_Z14luaL_argerrorLP9lua_StateiPKc(ptr noundef nonnull %0, i32 noundef 2, ptr noundef nonnull @.str.39) #12
  unreachable

61:                                               ; preds = %58
  %62 = add nuw i32 %59, 1
  %63 = zext i32 %62 to i64
  %64 = getelementptr inbounds nuw i8, ptr %3, i64 3248
  %65 = load i64, ptr %64, align 8, !tbaa !19
  %66 = mul i64 %65, 6364136223846793005
  %67 = add i64 %66, 105
  store i64 %67, ptr %64, align 8, !tbaa !19
  %68 = lshr i64 %65, 45
  %69 = lshr i64 %65, 27
  %70 = xor i64 %68, %69
  %71 = trunc i64 %70 to i32
  %72 = lshr i64 %65, 59
  %73 = trunc nuw nsw i64 %72 to i32
  %74 = tail call noundef i32 @llvm.fshr.i32(i32 %71, i32 %71, i32 %73)
  %75 = zext i32 %74 to i64
  %76 = mul nuw i64 %75, %63
  %77 = lshr i64 %76, 32
  %78 = trunc nuw i64 %77 to i32
  %79 = add i32 %55, %78
  tail call void @_Z15lua_pushintegerP9lua_Statei(ptr noundef nonnull %0, i32 noundef %79)
  br label %81

80:                                               ; preds = %1
  tail call void (ptr, ptr, ...) @_Z11luaL_errorLP9lua_StatePKcz(ptr noundef nonnull %0, ptr noundef nonnull @.str.40) #12
  unreachable

81:                                               ; preds = %61, %36, %5
  ret i32 1
}